#include <math.h>
#include <stdio.h>
#include <stdlib.h>
#include <string.h>

main()
{
      int n,i,len;
      scanf("%d",&n);
      
      for(i=0;i<n;i++)
      {
          char letter[51]={'\0'};
          scanf("%s",letter);
          len=strlen(letter);
          if(letter[len-2]=='e'||letter[len-2]=='l')
              letter[len-2]='\0';
          if(letter[len-2]=='n')
              letter[len-3]='\0';
          printf("%s\n",letter);
          }
}
          
       
